target datalayout = "e-m:e-p270:32:32-p271:32:32-p272:64:64-i64:64-i128:128-f80:128-n8:16:32:64-S128"
target triple = "x86_64-pc-linux-gnu"

%struct.luaL_Buffer = type { ptr, i64, i64, ptr, %union.anon }
%union.anon = type { double, [1016 x i8] }

; Function Attrs: nounwind uwtable
define internal i32 @str_reverse(ptr noundef %0) #0 {
  %2 = alloca ptr, align 8
  %3 = alloca i64, align 8
  %4 = alloca i64, align 8
  %5 = alloca %struct.luaL_Buffer, align 8
  %6 = alloca ptr, align 8
  %7 = alloca ptr, align 8
  store ptr %0, ptr %2, align 8, !tbaa !4
  call void @llvm.lifetime.start.p0(i64 8, ptr %3) #11
  call void @llvm.lifetime.start.p0(i64 8, ptr %4) #11
  call void @llvm.lifetime.start.p0(i64 1056, ptr %5) #11
  call void @llvm.lifetime.start.p0(i64 8, ptr %6) #11
  %8 = load ptr, ptr %2, align 8, !tbaa !4
  %9 = call ptr @luaL_checklstring(ptr noundef %8, i32 noundef 1, ptr noundef %3)
  store ptr %9, ptr %6, align 8, !tbaa !9
  call void @llvm.lifetime.start.p0(i64 8, ptr %7) #11
  %10 = load ptr, ptr %2, align 8, !tbaa !4
  %11 = load i64, ptr %3, align 8, !tbaa !13
  %12 = call ptr @luaL_buffinitsize(ptr noundef %10, ptr noundef %5, i64 noundef %11)
  store ptr %12, ptr %7, align 8, !tbaa !9
  store i64 0, ptr %4, align 8, !tbaa !13
  br label %13

13:                                               ; preds = %28, %1
  %14 = load i64, ptr %4, align 8, !tbaa !13
  %15 = load i64, ptr %3, align 8, !tbaa !13
  %16 = icmp ult i64 %14, %15
  br i1 %16, label %17, label %31

17:                                               ; preds = %13
  %18 = load ptr, ptr %6, align 8, !tbaa !9
  %19 = load i64, ptr %3, align 8, !tbaa !13
  %20 = load i64, ptr %4, align 8, !tbaa !13
  %21 = sub i64 %19, %20
  %22 = sub i64 %21, 1
  %23 = getelementptr inbounds nuw i8, ptr %18, i64 %22
  %24 = load i8, ptr %23, align 1, !tbaa !17
  %25 = load ptr, ptr %7, align 8, !tbaa !9
  %26 = load i64, ptr %4, align 8, !tbaa !13
  %27 = getelementptr inbounds nuw i8, ptr %25, i64 %26
  store i8 %24, ptr %27, align 1, !tbaa !17
  br label %28

28:                                               ; preds = %17
  %29 = load i64, ptr %4, align 8, !tbaa !13
  %30 = add i64 %29, 1
  store i64 %30, ptr %4, align 8, !tbaa !13
  br label %13

31:                                               ; preds = %13
  %32 = load i64, ptr %3, align 8, !tbaa !13
  call void @luaL_pushresultsize(ptr noundef %5, i64 noundef %32)
  call void @llvm.lifetime.end.p0(i64 8, ptr %7) #11
  call void @llvm.lifetime.end.p0(i64 8, ptr %6) #11
  call void @llvm.lifetime.end.p0(i64 1056, ptr %5) #11
  call void @llvm.lifetime.end.p0(i64 8, ptr %4) #11
  call void @llvm.lifetime.end.p0(i64 8, ptr %3) #11
  ret i32 1
}