; Function Attrs: nounwind uwtable
define internal noundef i32 @str_reverse(ptr noundef %0) #0 {
  %2 = alloca i64, align 8
  %3 = alloca %struct.luaL_Buffer, align 8
  call void @llvm.lifetime.start.p0(i64 8, ptr nonnull %2) #12
  call void @llvm.lifetime.start.p0(i64 1056, ptr nonnull %3) #12
  %4 = call ptr @luaL_checklstring(ptr noundef %0, i32 noundef 1, ptr noundef nonnull %2) #12
  %5 = load i64, ptr %2, align 8, !tbaa !4
  %6 = call ptr @luaL_buffinitsize(ptr noundef %0, ptr noundef nonnull %3, i64 noundef %5) #12
  %7 = load i64, ptr %2, align 8, !tbaa !4
  %.not = icmp eq i64 %7, 0
  br i1 %.not, label %._crit_edge, label %.lr.ph

.lr.ph:                                           ; preds = %1, %.lr.ph
  %8 = phi i64 [ %15, %.lr.ph ], [ %7, %1 ]
  %.08 = phi i64 [ %14, %.lr.ph ], [ 0, %1 ]
  %9 = xor i64 %.08, -1
  %10 = getelementptr i8, ptr %4, i64 %8
  %11 = getelementptr i8, ptr %10, i64 %9
  %12 = load i8, ptr %11, align 1, !tbaa !9
  %13 = getelementptr inbounds nuw i8, ptr %6, i64 %.08
  store i8 %12, ptr %13, align 1, !tbaa !9
  %14 = add nuw i64 %.08, 1
  %15 = load i64, ptr %2, align 8, !tbaa !4
  %16 = icmp ult i64 %14, %15
  br i1 %16, label %.lr.ph, label %._crit_edge

._crit_edge:                                      ; preds = %.lr.ph, %1
  %.lcssa = phi i64 [ 0, %1 ], [ %15, %.lr.ph ]
  call void @luaL_pushresultsize(ptr noundef nonnull %3, i64 noundef %.lcssa) #12
  call void @llvm.lifetime.end.p0(i64 1056, ptr nonnull %3) #12
  call void @llvm.lifetime.end.p0(i64 8, ptr nonnull %2) #12
  ret i32 1
}